target datalayout = "e-m:e-p270:32:32-p271:32:32-p272:64:64-i64:64-i128:128-f80:128-n8:16:32:64-S128"
target triple = "x86_64-pc-linux-gnu"

%"class.cv::flann::Index" = type { ptr, i32, i32, i32, ptr, %"class.cv::Mat" }
%"class.cv::Mat" = type { i32, i32, i32, i32, ptr, ptr, ptr, ptr, ptr, ptr, %"struct.cv::MatSize", %"struct.cv::MatStep" }
%"struct.cv::MatSize" = type { ptr }
%"struct.cv::MatStep" = type { ptr, [2 x i64] }

; Function Attrs: mustprogress uwtable
define void @_ZN2cv5flann5IndexC2ERKNS_11_InputArrayERKNS0_11IndexParamsEN7cvflann16flann_distance_tE(ptr noundef nonnull align 8 dereferenceable(128) %0, ptr noundef nonnull align 8 dereferenceable(24) %1, ptr noundef nonnull align 8 dereferenceable(8) %2, i32 noundef %3) unnamed_addr #7 align 2 personality ptr @__gxx_personality_v0 {
  %5 = alloca ptr, align 8
  %6 = alloca ptr, align 8
  %7 = alloca ptr, align 8
  %8 = alloca i32, align 4
  %9 = alloca ptr, align 8
  %10 = alloca i32, align 4
  store ptr %0, ptr %5, align 8, !tbaa !106
  store ptr %1, ptr %6, align 8, !tbaa !120
  store ptr %2, ptr %7, align 8, !tbaa !3
  store i32 %3, ptr %8, align 4, !tbaa !122
  %11 = load ptr, ptr %5, align 8
  store ptr getelementptr inbounds inrange(-16, 64) ({ [10 x ptr] }, ptr @_ZTVN2cv5flann5IndexE, i32 0, i32 0, i32 2), ptr %11, align 8, !tbaa !74
  %12 = getelementptr inbounds nuw %"class.cv::flann::Index", ptr %11, i32 0, i32 5
  call void @_ZN2cv3MatC1Ev(ptr noundef nonnull align 8 dereferenceable(96) %12) #3
  %13 = getelementptr inbounds nuw %"class.cv::flann::Index", ptr %11, i32 0, i32 4
  store ptr null, ptr %13, align 8, !tbaa !108
  %14 = getelementptr inbounds nuw %"class.cv::flann::Index", ptr %11, i32 0, i32 3
  store i32 5, ptr %14, align 8, !tbaa !117
  %15 = getelementptr inbounds nuw %"class.cv::flann::Index", ptr %11, i32 0, i32 2
  store i32 0, ptr %15, align 4, !tbaa !118
  %16 = getelementptr inbounds nuw %"class.cv::flann::Index", ptr %11, i32 0, i32 1
  store i32 1, ptr %16, align 8, !tbaa !119
  %17 = load ptr, ptr %6, align 8, !tbaa !120
  %18 = load ptr, ptr %7, align 8, !tbaa !3
  %19 = load i32, ptr %8, align 4, !tbaa !122
  %20 = load ptr, ptr %11, align 8, !tbaa !74
  %21 = getelementptr inbounds ptr, ptr %20, i64 2
  %22 = load ptr, ptr %21, align 8
  invoke void %22(ptr noundef nonnull align 8 dereferenceable(128) %11, ptr noundef nonnull align 8 dereferenceable(24) %17, ptr noundef nonnull align 8 dereferenceable(8) %18, i32 noundef %19)
          to label %23 unwind label %24

23:                                               ; preds = %4
  ret void

24:                                               ; preds = %4
  %25 = landingpad { ptr, i32 }
          cleanup
  %26 = extractvalue { ptr, i32 } %25, 0
  store ptr %26, ptr %9, align 8
  %27 = extractvalue { ptr, i32 } %25, 1
  store i32 %27, ptr %10, align 4
  call void @_ZN2cv3MatD1Ev(ptr noundef nonnull align 8 dereferenceable(96) %12) #3
  br label %28

28:                                               ; preds = %24
  %29 = load ptr, ptr %9, align 8
  %30 = load i32, ptr %10, align 4
  %31 = insertvalue { ptr, i32 } poison, ptr %29, 0
  %32 = insertvalue { ptr, i32 } %31, i32 %30, 1
  resume { ptr, i32 } %32
}