; Function Attrs: mustprogress uwtable
define void @_ZN2cv5flann5IndexC2ERKNS_11_InputArrayERKNS0_11IndexParamsEN7cvflann16flann_distance_tE(ptr noundef nonnull align 8 dereferenceable(128) initializes((0, 8)) %0, ptr noundef nonnull align 8 dereferenceable(24) %1, ptr noundef nonnull align 8 dereferenceable(8) %2, i32 noundef %3) unnamed_addr #7 align 2 personality ptr @__gxx_personality_v0 {
  store ptr getelementptr inbounds nuw inrange(-16, 64) (i8, ptr @_ZTVN2cv5flann5IndexE, i64 16), ptr %0, align 8, !tbaa !35
  %5 = getelementptr inbounds nuw i8, ptr %0, i64 32
  tail call void @_ZN2cv3MatC1Ev(ptr noundef nonnull align 8 dereferenceable(96) %5) #34
  %6 = getelementptr inbounds nuw i8, ptr %0, i64 24
  store ptr null, ptr %6, align 8, !tbaa !74
  %7 = getelementptr inbounds nuw i8, ptr %0, i64 16
  store i32 5, ptr %7, align 8, !tbaa !84
  %8 = getelementptr inbounds nuw i8, ptr %0, i64 12
  store i32 0, ptr %8, align 4, !tbaa !85
  %9 = getelementptr inbounds nuw i8, ptr %0, i64 8
  store i32 1, ptr %9, align 8, !tbaa !86
  %10 = load ptr, ptr %0, align 8, !tbaa !35
  %11 = getelementptr inbounds nuw i8, ptr %10, i64 16
  %12 = load ptr, ptr %11, align 8
  invoke void %12(ptr noundef nonnull align 8 dereferenceable(128) %0, ptr noundef nonnull align 8 dereferenceable(24) %1, ptr noundef nonnull align 8 dereferenceable(8) %2, i32 noundef %3)
          to label %13 unwind label %14

13:                                               ; preds = %4
  ret void

14:                                               ; preds = %4
  %15 = landingpad { ptr, i32 }
          cleanup
  tail call void @_ZN2cv3MatD1Ev(ptr noundef nonnull align 8 dereferenceable(96) %5) #34
  resume { ptr, i32 } %15
}